target datalayout = "e-m:e-p270:32:32-p271:32:32-p272:64:64-i64:64-i128:128-f80:128-n8:16:32:64-S128"
target triple = "x86_64-pc-linux-gnu"

%"class.std::__cxx11::basic_string" = type { %"struct.std::__cxx11::basic_string<char>::_Alloc_hider", i64, %union.anon }
%"struct.std::__cxx11::basic_string<char>::_Alloc_hider" = type { ptr }
%union.anon = type { i64, [8 x i8] }
%"class.llvm::StringRef" = type { ptr, i64 }
%"struct.std::_Rb_tree_header" = type { %"struct.std::_Rb_tree_node_base", i64 }
%"struct.std::_Rb_tree_node_base" = type { i32, ptr, ptr, ptr }
%"struct.llvm::LaneBitmask" = type { i64 }
%"class.llvm::SmallVectorBase" = type { ptr, i32, i32 }
%"class.std::vector.170" = type { %"struct.std::_Vector_base.171" }
%"struct.std::_Vector_base.171" = type { %"struct.std::_Vector_base<const llvm::CodeGenRegister *, std::allocator<const llvm::CodeGenRegister *>>::_Vector_impl" }
%"struct.std::_Vector_base<const llvm::CodeGenRegister *, std::allocator<const llvm::CodeGenRegister *>>::_Vector_impl" = type { %"struct.std::_Vector_base<const llvm::CodeGenRegister *, std::allocator<const llvm::CodeGenRegister *>>::_Vector_impl_data" }
%"struct.std::_Vector_base<const llvm::CodeGenRegister *, std::allocator<const llvm::CodeGenRegister *>>::_Vector_impl_data" = type { ptr, ptr, ptr }
%"struct.llvm::RegSizeInfoByHwMode" = type { %"struct.llvm::InfoByHwMode.257" }
%"struct.llvm::InfoByHwMode.257" = type { %"class.std::map.258" }
%"class.std::map.258" = type { %"class.std::_Rb_tree.259" }
%"class.std::_Rb_tree.259" = type { %"struct.std::_Rb_tree<unsigned int, std::pair<const unsigned int, llvm::RegSizeInfo>, std::_Select1st<std::pair<const unsigned int, llvm::RegSizeInfo>>, std::less<unsigned int>>::_Rb_tree_impl" }
%"struct.std::_Rb_tree<unsigned int, std::pair<const unsigned int, llvm::RegSizeInfo>, std::_Select1st<std::pair<const unsigned int, llvm::RegSizeInfo>>, std::less<unsigned int>>::_Rb_tree_impl" = type { [8 x i8], %"struct.std::_Rb_tree_header" }
%"class.llvm::CodeGenRegisterClass" = type <{ %"class.std::vector.170", %"class.std::vector.231", %"class.llvm::BitVector", %"class.llvm::SmallVector.241", ptr, %"class.std::__cxx11::basic_string", %"class.llvm::DenseMap.246", %"class.llvm::DenseMap.249", %"class.llvm::BitVector", i32, [4 x i8], %"class.llvm::StringRef", %"class.llvm::SmallVector.252", %"struct.llvm::RegSizeInfoByHwMode", i32, i8, [3 x i8], %"class.llvm::StringRef", i8, i8, i8, [5 x i8], %"struct.llvm::LaneBitmask", i8, i8, i8, i8, [4 x i8] }>
%"class.std::vector.231" = type { %"struct.std::_Vector_base.232" }
%"struct.std::_Vector_base.232" = type { %"struct.std::_Vector_base<llvm::SmallVector<llvm::Record *, 16>, std::allocator<llvm::SmallVector<llvm::Record *, 16>>>::_Vector_impl" }
%"struct.std::_Vector_base<llvm::SmallVector<llvm::Record *, 16>, std::allocator<llvm::SmallVector<llvm::Record *, 16>>>::_Vector_impl" = type { %"struct.std::_Vector_base<llvm::SmallVector<llvm::Record *, 16>, std::allocator<llvm::SmallVector<llvm::Record *, 16>>>::_Vector_impl_data" }
%"struct.std::_Vector_base<llvm::SmallVector<llvm::Record *, 16>, std::allocator<llvm::SmallVector<llvm::Record *, 16>>>::_Vector_impl_data" = type { ptr, ptr, ptr }
%"class.llvm::SmallVector.241" = type { %"class.llvm::SmallVectorImpl.242", %"struct.llvm::SmallVectorStorage.245" }
%"class.llvm::SmallVectorImpl.242" = type { %"class.llvm::SmallVectorTemplateBase.243" }
%"class.llvm::SmallVectorTemplateBase.243" = type { %"class.llvm::SmallVectorTemplateCommon.244" }
%"class.llvm::SmallVectorTemplateCommon.244" = type { %"class.llvm::SmallVectorBase" }
%"struct.llvm::SmallVectorStorage.245" = type { [32 x i8] }
%"class.llvm::DenseMap.246" = type <{ ptr, i32, i32, i32, [4 x i8] }>
%"class.llvm::DenseMap.249" = type <{ ptr, i32, i32, i32, [4 x i8] }>
%"class.llvm::BitVector" = type <{ %"class.llvm::SmallVector.236", i32, [4 x i8] }>
%"class.llvm::SmallVector.236" = type { %"class.llvm::SmallVectorImpl.237", %"struct.llvm::SmallVectorStorage.240" }
%"class.llvm::SmallVectorImpl.237" = type { %"class.llvm::SmallVectorTemplateBase.238" }
%"class.llvm::SmallVectorTemplateBase.238" = type { %"class.llvm::SmallVectorTemplateCommon.239" }
%"class.llvm::SmallVectorTemplateCommon.239" = type { %"class.llvm::SmallVectorBase" }
%"struct.llvm::SmallVectorStorage.240" = type { [48 x i8] }
%"class.llvm::SmallVector.252" = type { %"class.llvm::SmallVectorImpl.253", %"struct.llvm::SmallVectorStorage.256" }
%"class.llvm::SmallVectorImpl.253" = type { %"class.llvm::SmallVectorTemplateBase.254" }
%"class.llvm::SmallVectorTemplateBase.254" = type { %"class.llvm::SmallVectorTemplateCommon.255" }
%"class.llvm::SmallVectorTemplateCommon.255" = type { %"class.llvm::SmallVectorBase" }
%"struct.llvm::SmallVectorStorage.256" = type { [224 x i8] }

@.str.49 = private unnamed_addr constant [11 x i8] c"RegClassID\00", align 1

; Function Attrs: mustprogress nounwind uwtable
define linkonce_odr void @_ZStplIcSt11char_traitsIcESaIcEENSt7__cxx1112basic_stringIT_T0_T1_EERKS8_PKS5_(ptr dead_on_unwind noalias writable sret(%"class.std::__cxx11::basic_string") align 8 %0, ptr noundef nonnull align 8 dereferenceable(32) %1, ptr noundef %2) #0 comdat {
  %4 = alloca ptr, align 8
  %5 = alloca ptr, align 8
  %6 = alloca ptr, align 8
  %7 = alloca i1, align 1
  store ptr %0, ptr %4, align 8
  store ptr %1, ptr %5, align 8
  store ptr %2, ptr %6, align 8
  store i1 false, ptr %7, align 1
  %8 = load ptr, ptr %5, align 8
  call void @_ZNSt7__cxx1112basic_stringIcSt11char_traitsIcESaIcEEC1ERKS4_(ptr noundef nonnull align 8 dereferenceable(32) %0, ptr noundef nonnull align 8 dereferenceable(32) %8)
  %9 = load ptr, ptr %6, align 8
  %10 = call noundef nonnull align 8 dereferenceable(32) ptr @_ZNSt7__cxx1112basic_stringIcSt11char_traitsIcESaIcEE6appendEPKc(ptr noundef nonnull align 8 dereferenceable(32) %0, ptr noundef %9)
  store i1 true, ptr %7, align 1
  %11 = load i1, ptr %7, align 1
  br i1 %11, label %13, label %12

12:                                               ; preds = %3
  call void @_ZNSt7__cxx1112basic_stringIcSt11char_traitsIcESaIcEED1Ev(ptr noundef nonnull align 8 dereferenceable(32) %0) #6
  br label %13

13:                                               ; preds = %12, %3
  ret void
}

; Function Attrs: mustprogress nounwind uwtable
define linkonce_odr hidden noundef nonnull align 8 dereferenceable(32) ptr @_ZNK4llvm20CodeGenRegisterClass7getNameB5cxx11Ev(ptr noundef nonnull align 8 dereferenceable(684) %0) #0 comdat align 2 {
  %2 = alloca ptr, align 8
  store ptr %0, ptr %2, align 8
  %3 = load ptr, ptr %2, align 8
  %4 = getelementptr inbounds nuw %"class.llvm::CodeGenRegisterClass", ptr %3, i32 0, i32 5
  ret ptr %4
}

; Function Attrs: mustprogress nounwind uwtable
define linkonce_odr void @_ZStplIcSt11char_traitsIcESaIcEENSt7__cxx1112basic_stringIT_T0_T1_EEOS8_S9_(ptr dead_on_unwind noalias writable sret(%"class.std::__cxx11::basic_string") align 8 %0, ptr noundef nonnull align 8 dereferenceable(32) %1, ptr noundef nonnull align 8 dereferenceable(32) %2) #0 comdat {
  %4 = alloca ptr, align 8
  %5 = alloca ptr, align 8
  %6 = alloca ptr, align 8
  %7 = alloca i8, align 1
  %8 = alloca i64, align 8
  store ptr %0, ptr %4, align 8
  store ptr %1, ptr %5, align 8
  store ptr %2, ptr %6, align 8
  store i8 0, ptr %7, align 1
  store i8 1, ptr %7, align 1
  %9 = load i8, ptr %7, align 1
  %10 = trunc i8 %9 to i1
  br i1 %10, label %11, label %31

11:                                               ; preds = %3
  %12 = load ptr, ptr %5, align 8
  %13 = call noundef i64 @_ZNKSt7__cxx1112basic_stringIcSt11char_traitsIcESaIcEE4sizeEv(ptr noundef nonnull align 8 dereferenceable(32) %12) #6
  %14 = load ptr, ptr %6, align 8
  %15 = call noundef i64 @_ZNKSt7__cxx1112basic_stringIcSt11char_traitsIcESaIcEE4sizeEv(ptr noundef nonnull align 8 dereferenceable(32) %14) #6
  %16 = add i64 %13, %15
  store i64 %16, ptr %8, align 8
  %17 = load i64, ptr %8, align 8
  %18 = load ptr, ptr %5, align 8
  %19 = call noundef i64 @_ZNKSt7__cxx1112basic_stringIcSt11char_traitsIcESaIcEE8capacityEv(ptr noundef nonnull align 8 dereferenceable(32) %18) #6
  %20 = icmp ugt i64 %17, %19
  br i1 %20, label %21, label %30

21:                                               ; preds = %11
  %22 = load i64, ptr %8, align 8
  %23 = load ptr, ptr %6, align 8
  %24 = call noundef i64 @_ZNKSt7__cxx1112basic_stringIcSt11char_traitsIcESaIcEE8capacityEv(ptr noundef nonnull align 8 dereferenceable(32) %23) #6
  %25 = icmp ule i64 %22, %24
  br i1 %25, label %26, label %30

26:                                               ; preds = %21
  %27 = load ptr, ptr %6, align 8
  %28 = load ptr, ptr %5, align 8
  %29 = call noundef nonnull align 8 dereferenceable(32) ptr @_ZNSt7__cxx1112basic_stringIcSt11char_traitsIcESaIcEE6insertEmRKS4_(ptr noundef nonnull align 8 dereferenceable(32) %27, i64 noundef 0, ptr noundef nonnull align 8 dereferenceable(32) %28)
  call void @_ZNSt7__cxx1112basic_stringIcSt11char_traitsIcESaIcEEC1EOS4_(ptr noundef nonnull align 8 dereferenceable(32) %0, ptr noundef nonnull align 8 dereferenceable(32) %29) #6
  br label %35

30:                                               ; preds = %21, %11
  br label %31

31:                                               ; preds = %30, %3
  %32 = load ptr, ptr %5, align 8
  %33 = load ptr, ptr %6, align 8
  %34 = call noundef nonnull align 8 dereferenceable(32) ptr @_ZNSt7__cxx1112basic_stringIcSt11char_traitsIcESaIcEE6appendERKS4_(ptr noundef nonnull align 8 dereferenceable(32) %32, ptr noundef nonnull align 8 dereferenceable(32) %33)
  call void @_ZNSt7__cxx1112basic_stringIcSt11char_traitsIcESaIcEEC1EOS4_(ptr noundef nonnull align 8 dereferenceable(32) %0, ptr noundef nonnull align 8 dereferenceable(32) %34) #6
  br label %35

35:                                               ; preds = %31, %26
  ret void
}

; Function Attrs: mustprogress nounwind uwtable
define dso_local void @_ZNK4llvm20CodeGenRegisterClass9getIdNameB5cxx11Ev(ptr dead_on_unwind noalias writable sret(%"class.std::__cxx11::basic_string") align 8 %0, ptr noundef nonnull align 8 dereferenceable(684) %1) #0 align 2 {
  %3 = alloca ptr, align 8
  %4 = alloca ptr, align 8
  store ptr %0, ptr %3, align 8
  store ptr %1, ptr %4, align 8
  %5 = load ptr, ptr %4, align 8
  %6 = call noundef nonnull align 8 dereferenceable(32) ptr @_ZNK4llvm20CodeGenRegisterClass7getNameB5cxx11Ev(ptr noundef nonnull align 8 dereferenceable(684) %5)
  call void @_ZStplIcSt11char_traitsIcESaIcEENSt7__cxx1112basic_stringIT_T0_T1_EERKS8_PKS5_(ptr dead_on_unwind writable sret(%"class.std::__cxx11::basic_string") align 8 %0, ptr noundef nonnull align 8 dereferenceable(32) %6, ptr noundef @.str.49)
  ret void
}

; Function Attrs: mustprogress nounwind uwtable
define dso_local void @_ZNK4llvm20CodeGenRegisterClass18getQualifiedIdNameB5cxx11Ev(ptr dead_on_unwind noalias writable sret(%"class.std::__cxx11::basic_string") align 8 %0, ptr noundef nonnull align 8 dereferenceable(684) %1) #0 align 2 {
  %3 = alloca ptr, align 8
  %4 = alloca ptr, align 8
  %5 = alloca %"class.std::__cxx11::basic_string", align 8
  %6 = alloca %"class.std::__cxx11::basic_string", align 8
  store ptr %0, ptr %3, align 8
  store ptr %1, ptr %4, align 8
  %7 = load ptr, ptr %4, align 8
  call void @_ZNK4llvm20CodeGenRegisterClass25getNamespaceQualificationB5cxx11Ev(ptr dead_on_unwind writable sret(%"class.std::__cxx11::basic_string") align 8 %5, ptr noundef nonnull align 8 dereferenceable(684) %7)
  call void @_ZNK4llvm20CodeGenRegisterClass9getIdNameB5cxx11Ev(ptr dead_on_unwind writable sret(%"class.std::__cxx11::basic_string") align 8 %6, ptr noundef nonnull align 8 dereferenceable(684) %7)
  call void @_ZStplIcSt11char_traitsIcESaIcEENSt7__cxx1112basic_stringIT_T0_T1_EEOS8_S9_(ptr dead_on_unwind writable sret(%"class.std::__cxx11::basic_string") align 8 %0, ptr noundef nonnull align 8 dereferenceable(32) %5, ptr noundef nonnull align 8 dereferenceable(32) %6)
  call void @_ZNSt7__cxx1112basic_stringIcSt11char_traitsIcESaIcEED1Ev(ptr noundef nonnull align 8 dereferenceable(32) %6) #6
  call void @_ZNSt7__cxx1112basic_stringIcSt11char_traitsIcESaIcEED1Ev(ptr noundef nonnull align 8 dereferenceable(32) %5) #6
  ret void
}